target datalayout = "e-m:e-p270:32:32-p271:32:32-p272:64:64-i64:64-i128:128-f80:128-n8:16:32:64-S128"
target triple = "x86_64-pc-linux-gnu"

@.str.9 = private unnamed_addr constant [7 x i8] c"thread\00", align 1
@_ZL9statnames = internal constant [5 x ptr] [ptr @.str.3, ptr @.str.10, ptr @.str.11, ptr @.str.12, ptr @.str.12], align 16

; Function Attrs: mustprogress uwtable
define internal noundef i32 @_ZL8costatusP9lua_State(ptr noundef %0) #0 {
  %2 = alloca ptr, align 8
  %3 = alloca ptr, align 8
  store ptr %0, ptr %2, align 8
  %4 = load ptr, ptr %2, align 8
  %5 = call noundef ptr @_Z12lua_tothreadP9lua_Statei(ptr noundef %4, i32 noundef 1)
  store ptr %5, ptr %3, align 8
  %6 = load ptr, ptr %3, align 8
  %7 = icmp ne ptr %6, null
  br i1 %7, label %8, label %9

8:                                                ; preds = %1
  br label %12

9:                                                ; preds = %1
  %10 = load ptr, ptr %2, align 8
  call void @_Z15luaL_typeerrorLP9lua_StateiPKc(ptr noundef %10, i32 noundef 1, ptr noundef @.str.9) #3
  unreachable

11:                                               ; No predecessors!
  br label %12

12:                                               ; preds = %11, %8
  %13 = load ptr, ptr %2, align 8
  %14 = load ptr, ptr %2, align 8
  %15 = load ptr, ptr %3, align 8
  %16 = call noundef i32 @_Z12lua_costatusP9lua_StateS0_(ptr noundef %14, ptr noundef %15)
  %17 = sext i32 %16 to i64
  %18 = getelementptr inbounds [5 x ptr], ptr @_ZL9statnames, i64 0, i64 %17
  %19 = load ptr, ptr %18, align 8
  call void @_Z14lua_pushstringP9lua_StatePKc(ptr noundef %13, ptr noundef %19)
  ret i32 1
}