; Function Attrs: mustprogress uwtable
define internal noundef i32 @_ZL8costatusP9lua_State(ptr noundef %0) #0 {
  %2 = tail call noundef ptr @_Z12lua_tothreadP9lua_Statei(ptr noundef %0, i32 noundef 1)
  %.not = icmp eq ptr %2, null
  br i1 %.not, label %3, label %4

3:                                                ; preds = %1
  tail call void @_Z15luaL_typeerrorLP9lua_StateiPKc(ptr noundef %0, i32 noundef 1, ptr noundef nonnull @.str.9) #3
  unreachable

4:                                                ; preds = %1
  %5 = tail call noundef i32 @_Z12lua_costatusP9lua_StateS0_(ptr noundef %0, ptr noundef nonnull %2)
  %6 = sext i32 %5 to i64
  %7 = getelementptr inbounds [5 x ptr], ptr @_ZL9statnames, i64 0, i64 %6
  %8 = load ptr, ptr %7, align 8
  tail call void @_Z14lua_pushstringP9lua_StatePKc(ptr noundef %0, ptr noundef %8)
  ret i32 1
}